; Function Attrs: mustprogress uwtable
define noundef zeroext i1 @_ZN6google8protobuf11MessageLite16ParseFromIstreamEPSi(ptr noundef nonnull align 8 dereferenceable(16) %this, ptr noundef %input) local_unnamed_addr #3 align 2 personality ptr @__gxx_personality_v0 {
entry:
  %ctx.i.i.i = alloca %"class.google::protobuf::internal::ParseContext", align 8
  %zero_copy_input = alloca %"class.google::protobuf::io::IstreamInputStream", align 8
  call void @_ZN6google8protobuf2io18IstreamInputStreamC1EPSii(ptr noundef nonnull align 8 dereferenceable(80) %zero_copy_input, ptr noundef %input, i32 noundef -1)
  %vtable.i.i = load ptr, ptr %this, align 8
  %vfn.i.i = getelementptr inbounds i8, ptr %vtable.i.i, i64 24
  %0 = load ptr, ptr %vfn.i.i, align 8
  invoke void %0(ptr noundef nonnull align 8 dereferenceable(16) %this)
          to label %.noexc unwind label %lpad

.noexc:                                           ; preds = %entry
  call void @llvm.lifetime.start.p0(i64 112, ptr nonnull %ctx.i.i.i)
  %1 = load i32, ptr @_ZN6google8protobuf2io16CodedInputStream24default_recursion_limit_E, align 4
  %zcis_.i.i.i.i.i = getelementptr inbounds i8, ptr %ctx.i.i.i, i64 32
  %last_tag_minus_1_.i.i.i.i.i = getelementptr inbounds i8, ptr %ctx.i.i.i, i64 80
  %overall_limit_.i.i.i.i.i = getelementptr inbounds i8, ptr %ctx.i.i.i, i64 84
  call void @llvm.memset.p0.i64(ptr noundef nonnull align 8 dereferenceable(52) %zcis_.i.i.i.i.i, i8 0, i64 52, i1 false)
  store i32 2147483647, ptr %overall_limit_.i.i.i.i.i, align 4
  %depth_.i.i.i.i = getelementptr inbounds i8, ptr %ctx.i.i.i, i64 88
  store i32 %1, ptr %depth_.i.i.i.i, align 8
  %group_depth_.i.i.i.i = getelementptr inbounds i8, ptr %ctx.i.i.i, i64 92
  store i32 -2147483648, ptr %group_depth_.i.i.i.i, align 4
  %data_.i.i.i.i = getelementptr inbounds i8, ptr %ctx.i.i.i, i64 96
  call void @llvm.memset.p0.i64(ptr noundef nonnull align 8 dereferenceable(16) %data_.i.i.i.i, i8 0, i64 16, i1 false)
  %call.i.i.i.i2 = invoke noundef ptr @_ZN6google8protobuf8internal18EpsCopyInputStream8InitFromEPNS0_2io19ZeroCopyInputStreamE(ptr noundef nonnull align 8 dereferenceable(88) %ctx.i.i.i, ptr noundef nonnull %zero_copy_input)
          to label %call.i.i.i.i.noexc unwind label %lpad

call.i.i.i.i.noexc:                               ; preds = %.noexc
  %vtable.i.i.i = load ptr, ptr %this, align 8
  %vfn.i.i.i = getelementptr inbounds i8, ptr %vtable.i.i.i, i64 56
  %2 = load ptr, ptr %vfn.i.i.i, align 8
  %call1.i.i.i3 = invoke noundef ptr %2(ptr noundef nonnull align 8 dereferenceable(16) %this, ptr noundef %call.i.i.i.i2, ptr noundef nonnull %ctx.i.i.i)
          to label %call1.i.i.i.noexc unwind label %lpad

call1.i.i.i.noexc:                                ; preds = %call.i.i.i.i.noexc
  %tobool.not.i.i.i = icmp ne ptr %call1.i.i.i3, null
  %3 = load i32, ptr %last_tag_minus_1_.i.i.i.i.i, align 8
  %cmp.i.i.i.i = icmp eq i32 %3, 1
  %or.cond.i.i.i = select i1 %tobool.not.i.i.i, i1 %cmp.i.i.i.i, i1 false
  br i1 %or.cond.i.i.i, label %if.then.i.i.i, label %invoke.cont.thread

if.then.i.i.i:                                    ; preds = %call1.i.i.i.noexc
  %vtable.i.i.i.i.i = load ptr, ptr %this, align 8
  %vfn.i.i.i.i.i = getelementptr inbounds i8, ptr %vtable.i.i.i.i.i, i64 32
  %4 = load ptr, ptr %vfn.i.i.i.i.i, align 8
  %call.i.i.i.i.i4 = invoke noundef zeroext i1 %4(ptr noundef nonnull align 8 dereferenceable(16) %this)
          to label %call.i.i.i.i.i.noexc unwind label %lpad

call.i.i.i.i.i.noexc:                             ; preds = %if.then.i.i.i
  br i1 %call.i.i.i.i.i4, label %land.rhs, label %if.end.i.i.i.i.i

if.end.i.i.i.i.i:                                 ; preds = %call.i.i.i.i.i.noexc
  invoke void @_ZNK6google8protobuf11MessageLite29LogInitializationErrorMessageEv(ptr noundef nonnull align 8 dereferenceable(16) %this)
          to label %invoke.cont.thread unwind label %lpad

invoke.cont.thread:                               ; preds = %call1.i.i.i.noexc, %if.end.i.i.i.i.i
  call void @llvm.lifetime.end.p0(i64 112, ptr nonnull %ctx.i.i.i)
  br label %land.end

land.rhs:                                         ; preds = %call.i.i.i.i.i.noexc
  call void @llvm.lifetime.end.p0(i64 112, ptr nonnull %ctx.i.i.i)
  %vtable = load ptr, ptr %input, align 8
  %vbase.offset.ptr = getelementptr i8, ptr %vtable, i64 -24
  %vbase.offset = load i64, ptr %vbase.offset.ptr, align 8
  %add.ptr = getelementptr inbounds i8, ptr %input, i64 %vbase.offset
  %call3 = invoke noundef zeroext i1 @_ZNKSt9basic_iosIcSt11char_traitsIcEE3eofEv(ptr noundef nonnull align 8 dereferenceable(264) %add.ptr)
          to label %land.end unwind label %lpad

land.end:                                         ; preds = %invoke.cont.thread, %land.rhs
  %5 = phi i1 [ %call3, %land.rhs ], [ false, %invoke.cont.thread ]
  %impl_.i = getelementptr inbounds i8, ptr %zero_copy_input, i64 24
  call void @_ZN6google8protobuf2io25CopyingInputStreamAdaptorD1Ev(ptr noundef nonnull align 8 dereferenceable(52) %impl_.i) #20
  %copying_input_.i = getelementptr inbounds i8, ptr %zero_copy_input, i64 8
  call void @_ZN6google8protobuf2io18IstreamInputStream25CopyingIstreamInputStreamD1Ev(ptr noundef nonnull align 8 dereferenceable(16) %copying_input_.i) #20
  ret i1 %5

lpad:                                             ; preds = %if.end.i.i.i.i.i, %if.then.i.i.i, %call.i.i.i.i.noexc, %.noexc, %entry, %land.rhs
  %6 = landingpad { ptr, i32 }
          cleanup
  %impl_.i6 = getelementptr inbounds i8, ptr %zero_copy_input, i64 24
  call void @_ZN6google8protobuf2io25CopyingInputStreamAdaptorD1Ev(ptr noundef nonnull align 8 dereferenceable(52) %impl_.i6) #20
  %copying_input_.i7 = getelementptr inbounds i8, ptr %zero_copy_input, i64 8
  call void @_ZN6google8protobuf2io18IstreamInputStream25CopyingIstreamInputStreamD1Ev(ptr noundef nonnull align 8 dereferenceable(16) %copying_input_.i7) #20
  resume { ptr, i32 } %6
}